target datalayout = "e-m:e-p270:32:32-p271:32:32-p272:64:64-i64:64-i128:128-f80:128-n8:16:32:64-S128"
target triple = "x86_64-pc-linux-gnu"

@.str.12 = private unnamed_addr constant [13 x i8] c"Close failed\00", align 1

; Function Attrs: nounwind uwtable
define void @Java_sun_nio_ch_sctp_SctpNet_close0(ptr noundef %0, ptr noundef %1, i32 noundef %2) #0 {
  %4 = alloca ptr, align 8
  %5 = alloca ptr, align 8
  %6 = alloca i32, align 4
  %7 = alloca i32, align 4
  store ptr %0, ptr %4, align 8
  store ptr %1, ptr %5, align 8
  store i32 %2, ptr %6, align 4
  %8 = load i32, ptr %6, align 4
  %9 = icmp ne i32 %8, -1
  br i1 %9, label %10, label %18

10:                                               ; preds = %3
  %11 = load i32, ptr %6, align 4
  %12 = call i32 @close(i32 noundef %11)
  store i32 %12, ptr %7, align 4
  %13 = load i32, ptr %7, align 4
  %14 = icmp slt i32 %13, 0
  br i1 %14, label %15, label %17

15:                                               ; preds = %10
  %16 = load ptr, ptr %4, align 8
  call void @JNU_ThrowIOExceptionWithLastError(ptr noundef %16, ptr noundef @.str.12)
  br label %17

17:                                               ; preds = %15, %10
  br label %18

18:                                               ; preds = %17, %3
  ret void
}