; Function Attrs: nounwind uwtable
define void @Java_sun_nio_ch_sctp_SctpNet_close0(ptr noundef %0, ptr nocapture noundef readnone %1, i32 noundef %2) local_unnamed_addr #1 {
  %.not = icmp eq i32 %2, -1
  br i1 %.not, label %8, label %4

4:                                                ; preds = %3
  %5 = tail call i32 @close(i32 noundef %2) #10
  %6 = icmp slt i32 %5, 0
  br i1 %6, label %7, label %8

7:                                                ; preds = %4
  tail call void @JNU_ThrowIOExceptionWithLastError(ptr noundef %0, ptr noundef nonnull @.str.12) #10
  br label %8

8:                                                ; preds = %4, %7, %3
  ret void
}